target datalayout = "e-m:e-p270:32:32-p271:32:32-p272:64:64-i64:64-i128:128-f80:128-n8:16:32:64-S128"
target triple = "x86_64-pc-linux-gnu"

@.str.54 = private unnamed_addr constant [52 x i8] c"'setfenv' cannot change environment of given object\00", align 1

; Function Attrs: nounwind uwtable
define internal i32 @luaB_setfenv(ptr noundef %0) #0 {
  %2 = alloca i32, align 4
  %3 = alloca ptr, align 8
  store ptr %0, ptr %3, align 8, !tbaa !4
  %4 = load ptr, ptr %3, align 8, !tbaa !4
  call void @luaL_checktype(ptr noundef %4, i32 noundef 2, i32 noundef 5)
  %5 = load ptr, ptr %3, align 8, !tbaa !4
  call void @getfunc(ptr noundef %5, i32 noundef 0)
  %6 = load ptr, ptr %3, align 8, !tbaa !4
  call void @lua_pushvalue(ptr noundef %6, i32 noundef 2)
  %7 = load ptr, ptr %3, align 8, !tbaa !4
  %8 = call i32 @lua_isnumber(ptr noundef %7, i32 noundef 1)
  %9 = icmp ne i32 %8, 0
  br i1 %9, label %10, label %20

10:                                               ; preds = %1
  %11 = load ptr, ptr %3, align 8, !tbaa !4
  %12 = call double @lua_tonumber(ptr noundef %11, i32 noundef 1)
  %13 = fcmp oeq double %12, 0.000000e+00
  br i1 %13, label %14, label %20

14:                                               ; preds = %10
  %15 = load ptr, ptr %3, align 8, !tbaa !4
  %16 = call i32 @lua_pushthread(ptr noundef %15)
  %17 = load ptr, ptr %3, align 8, !tbaa !4
  call void @lua_insert(ptr noundef %17, i32 noundef -2)
  %18 = load ptr, ptr %3, align 8, !tbaa !4
  %19 = call i32 @lua_setfenv(ptr noundef %18, i32 noundef -2)
  store i32 0, ptr %2, align 4
  br label %33

20:                                               ; preds = %10, %1
  %21 = load ptr, ptr %3, align 8, !tbaa !4
  %22 = call i32 @lua_iscfunction(ptr noundef %21, i32 noundef -2)
  %23 = icmp ne i32 %22, 0
  br i1 %23, label %28, label %24

24:                                               ; preds = %20
  %25 = load ptr, ptr %3, align 8, !tbaa !4
  %26 = call i32 @lua_setfenv(ptr noundef %25, i32 noundef -2)
  %27 = icmp eq i32 %26, 0
  br i1 %27, label %28, label %31

28:                                               ; preds = %24, %20
  %29 = load ptr, ptr %3, align 8, !tbaa !4
  %30 = call i32 (ptr, ptr, ...) @luaL_error(ptr noundef %29, ptr noundef @.str.54)
  br label %31

31:                                               ; preds = %28, %24
  br label %32

32:                                               ; preds = %31
  store i32 1, ptr %2, align 4
  br label %33

33:                                               ; preds = %32, %14
  %34 = load i32, ptr %2, align 4
  ret i32 %34
}