; Function Attrs: nounwind uwtable
define internal range(i32 0, 2) i32 @luaB_setfenv(ptr noundef %0) #0 {
  tail call void @luaL_checktype(ptr noundef %0, i32 noundef 2, i32 noundef 5) #8
  tail call fastcc void @getfunc(ptr noundef %0, i32 noundef 0)
  tail call void @lua_pushvalue(ptr noundef %0, i32 noundef 2) #8
  %2 = tail call i32 @lua_isnumber(ptr noundef %0, i32 noundef 1) #8
  %.not = icmp eq i32 %2, 0
  br i1 %.not, label %9, label %3

3:                                                ; preds = %1
  %4 = tail call double @lua_tonumber(ptr noundef %0, i32 noundef 1) #8
  %5 = fcmp oeq double %4, 0.000000e+00
  br i1 %5, label %6, label %9

6:                                                ; preds = %3
  %7 = tail call i32 @lua_pushthread(ptr noundef %0) #8
  tail call void @lua_insert(ptr noundef %0, i32 noundef -2) #8
  %8 = tail call i32 @lua_setfenv(ptr noundef %0, i32 noundef -2) #8
  br label %16

9:                                                ; preds = %3, %1
  %10 = tail call i32 @lua_iscfunction(ptr noundef %0, i32 noundef -2) #8
  %.not11 = icmp eq i32 %10, 0
  br i1 %.not11, label %11, label %14

11:                                               ; preds = %9
  %12 = tail call i32 @lua_setfenv(ptr noundef %0, i32 noundef -2) #8
  %13 = icmp eq i32 %12, 0
  br i1 %13, label %14, label %16

14:                                               ; preds = %11, %9
  %15 = tail call i32 (ptr, ptr, ...) @luaL_error(ptr noundef %0, ptr noundef nonnull @.str.54) #8
  br label %16

16:                                               ; preds = %14, %11, %6
  %.0 = phi i32 [ 0, %6 ], [ 1, %11 ], [ 1, %14 ]
  ret i32 %.0
}